; Function Attrs: mustprogress noinline uwtable
define internal fastcc void @_ZN3net12_GLOBAL__N_113MergeFromFailEi() unnamed_addr #12 personality ptr @__gxx_personality_v0 {
  %1 = alloca %"class.google::protobuf::internal::LogMessage", align 8
  %2 = alloca %"class.google::protobuf::internal::LogFinisher", align 1
  call void @llvm.lifetime.start.p0(i64 56, ptr nonnull %1) #21
  call void @_ZN6google8protobuf8internal10LogMessageC1ENS0_8LogLevelEPKci(ptr noundef nonnull align 8 dereferenceable(56) %1, i32 noundef 3, ptr noundef nonnull @.str, i32 noundef 59)
  %3 = invoke noundef nonnull align 8 dereferenceable(56) ptr @_ZN6google8protobuf8internal10LogMessagelsEPKc(ptr noundef nonnull align 8 dereferenceable(56) %1, ptr noundef nonnull @.str.2)
          to label %4 unwind label %12

4:                                                ; preds = %0
  %5 = invoke noundef nonnull align 8 dereferenceable(56) ptr @_ZN6google8protobuf8internal10LogMessagelsEPKc(ptr noundef nonnull align 8 dereferenceable(56) %3, ptr noundef nonnull @.str)
          to label %6 unwind label %12

6:                                                ; preds = %4
  %7 = invoke noundef nonnull align 8 dereferenceable(56) ptr @_ZN6google8protobuf8internal10LogMessagelsEPKc(ptr noundef nonnull align 8 dereferenceable(56) %5, ptr noundef nonnull @.str.3)
          to label %8 unwind label %12

8:                                                ; preds = %6
  %9 = invoke noundef nonnull align 8 dereferenceable(56) ptr @_ZN6google8protobuf8internal10LogMessagelsEi(ptr noundef nonnull align 8 dereferenceable(56) %7, i32 noundef 458)
          to label %10 unwind label %12

10:                                               ; preds = %8
  call void @llvm.lifetime.start.p0(i64 1, ptr nonnull %2) #21
  invoke void @_ZN6google8protobuf8internal11LogFinisheraSERNS1_10LogMessageE(ptr noundef nonnull align 1 dereferenceable(1) %2, ptr noundef nonnull align 8 dereferenceable(56) %9)
          to label %11 unwind label %14

11:                                               ; preds = %10
  call void @llvm.lifetime.end.p0(i64 1, ptr nonnull %2) #21
  call void @_ZN6google8protobuf8internal10LogMessageD1Ev(ptr noundef nonnull align 8 dereferenceable(56) %1) #21
  call void @llvm.lifetime.end.p0(i64 56, ptr nonnull %1) #21
  ret void

12:                                               ; preds = %8, %6, %4, %0
  %13 = landingpad { ptr, i32 }
          cleanup
  br label %16

14:                                               ; preds = %10
  %15 = landingpad { ptr, i32 }
          cleanup
  call void @llvm.lifetime.end.p0(i64 1, ptr nonnull %2) #21
  br label %16

16:                                               ; preds = %14, %12
  %.pn = phi { ptr, i32 } [ %15, %14 ], [ %13, %12 ]
  call void @_ZN6google8protobuf8internal10LogMessageD1Ev(ptr noundef nonnull align 8 dereferenceable(56) %1) #21
  call void @llvm.lifetime.end.p0(i64 56, ptr nonnull %1) #21
  resume { ptr, i32 } %.pn
}